; Function Attrs: mustprogress nofree nounwind memory(write, argmem: readwrite) uwtable
define internal noundef float @_ZN12_GLOBAL__N_16distL2EPKfS1_i(ptr nocapture noundef readonly %0, ptr nocapture noundef readonly %1, i32 noundef %2) unnamed_addr #5 {
  %4 = icmp sgt i32 %2, 0
  br i1 %4, label %.lr.ph.preheader, label %._crit_edge

.lr.ph.preheader:                                 ; preds = %3
  %wide.trip.count = zext nneg i32 %2 to i64
  br label %.lr.ph

.lr.ph:                                           ; preds = %.lr.ph.preheader, %.lr.ph
  %indvars.iv = phi i64 [ 0, %.lr.ph.preheader ], [ %indvars.iv.next, %.lr.ph ]
  %.012 = phi double [ 0.000000e+00, %.lr.ph.preheader ], [ %11, %.lr.ph ]
  %5 = getelementptr inbounds float, ptr %0, i64 %indvars.iv
  %6 = load float, ptr %5, align 4
  %7 = getelementptr inbounds float, ptr %1, i64 %indvars.iv
  %8 = load float, ptr %7, align 4
  %9 = fsub float %6, %8
  %10 = fpext float %9 to double
  %11 = tail call double @llvm.fmuladd.f64(double %10, double %10, double %.012)
  %indvars.iv.next = add nuw nsw i64 %indvars.iv, 1
  %exitcond.not = icmp eq i64 %indvars.iv.next, %wide.trip.count
  br i1 %exitcond.not, label %._crit_edge.loopexit, label %.lr.ph, !llvm.loop !66

._crit_edge.loopexit:                             ; preds = %.lr.ph
  %12 = fptrunc double %11 to float
  br label %._crit_edge

._crit_edge:                                      ; preds = %._crit_edge.loopexit, %3
  %.0.lcssa = phi float [ 0.000000e+00, %3 ], [ %12, %._crit_edge.loopexit ]
  %13 = tail call noundef float @sqrtf(float noundef %.0.lcssa) #16
  ret float %13
}